#include <math.h>
#include <stdio.h>
#include <stdlib.h>
#include <string.h>

int main()
{
	char str1[54],str2[54];
	int i,j,n,m,t,x,flag=1;
	scanf("%s%s",str1,str2);
      n=strlen(str1);
	  m=strlen(str2);
	  for(i=0;i<m-n;i++)
	  {
		  x=0;flag=1;
		  for(j=i;j<i+n-1;j++)
		  {
			  if(str1[x]!=str2[j])
			  { flag=0;break;}
			  x++;
		  }
		  if(flag==1)
			  break;
	  }
	  printf("%d",i);
	return 0;
}