; ModuleID = '45/2314.c'
source_filename = "45/2314.c"
target datalayout = "e-m:e-p270:32:32-p271:32:32-p272:64:64-i64:64-f80:128-n8:16:32:64-S128"
target triple = "x86_64-pc-linux-gnu"

@.str = private unnamed_addr constant [5 x i8] c"%s%s\00", align 1
@.str.1 = private unnamed_addr constant [3 x i8] c"%d\00", align 1

; Function Attrs: noinline nounwind uwtable
define dso_local i32 @main() #0 {
  %1 = alloca i32, align 4
  %2 = alloca [54 x i8], align 16
  %3 = alloca [54 x i8], align 16
  %4 = alloca i32, align 4
  %5 = alloca i32, align 4
  %6 = alloca i32, align 4
  %7 = alloca i32, align 4
  %8 = alloca i32, align 4
  %9 = alloca i32, align 4
  %10 = alloca i32, align 4
  store i32 0, i32* %1, align 4
  store i32 1, i32* %10, align 4
  %11 = getelementptr inbounds [54 x i8], [54 x i8]* %2, i64 0, i64 0
  %12 = getelementptr inbounds [54 x i8], [54 x i8]* %3, i64 0, i64 0
  %13 = call i32 (i8*, ...) @__isoc99_scanf(i8* getelementptr inbounds ([5 x i8], [5 x i8]* @.str, i64 0, i64 0), i8* %11, i8* %12)
  %14 = getelementptr inbounds [54 x i8], [54 x i8]* %2, i64 0, i64 0
  %15 = call i64 @strlen(i8* %14) #3
  %16 = trunc i64 %15 to i32
  store i32 %16, i32* %6, align 4
  %17 = getelementptr inbounds [54 x i8], [54 x i8]* %3, i64 0, i64 0
  %18 = call i64 @strlen(i8* %17) #3
  %19 = trunc i64 %18 to i32
  store i32 %19, i32* %7, align 4
  store i32 0, i32* %4, align 4
  br label %20

20:                                               ; preds = %59, %0
  %21 = load i32, i32* %4, align 4
  %22 = load i32, i32* %7, align 4
  %23 = load i32, i32* %6, align 4
  %24 = sub nsw i32 %22, %23
  %25 = icmp slt i32 %21, %24
  br i1 %25, label %26, label %62

26:                                               ; preds = %20
  store i32 0, i32* %9, align 4
  store i32 1, i32* %10, align 4
  %27 = load i32, i32* %4, align 4
  store i32 %27, i32* %5, align 4
  br label %28

28:                                               ; preds = %51, %26
  %29 = load i32, i32* %5, align 4
  %30 = load i32, i32* %4, align 4
  %31 = load i32, i32* %6, align 4
  %32 = add nsw i32 %30, %31
  %33 = sub nsw i32 %32, 1
  %34 = icmp slt i32 %29, %33
  br i1 %34, label %35, label %54

35:                                               ; preds = %28
  %36 = load i32, i32* %9, align 4
  %37 = sext i32 %36 to i64
  %38 = getelementptr inbounds [54 x i8], [54 x i8]* %2, i64 0, i64 %37
  %39 = load i8, i8* %38, align 1
  %40 = sext i8 %39 to i32
  %41 = load i32, i32* %5, align 4
  %42 = sext i32 %41 to i64
  %43 = getelementptr inbounds [54 x i8], [54 x i8]* %3, i64 0, i64 %42
  %44 = load i8, i8* %43, align 1
  %45 = sext i8 %44 to i32
  %46 = icmp ne i32 %40, %45
  br i1 %46, label %47, label %48

47:                                               ; preds = %35
  store i32 0, i32* %10, align 4
  br label %54

48:                                               ; preds = %35
  %49 = load i32, i32* %9, align 4
  %50 = add nsw i32 %49, 1
  store i32 %50, i32* %9, align 4
  br label %51

51:                                               ; preds = %48
  %52 = load i32, i32* %5, align 4
  %53 = add nsw i32 %52, 1
  store i32 %53, i32* %5, align 4
  br label %28

54:                                               ; preds = %47, %28
  %55 = load i32, i32* %10, align 4
  %56 = icmp eq i32 %55, 1
  br i1 %56, label %57, label %58

57:                                               ; preds = %54
  br label %62

58:                                               ; preds = %54
  br label %59

59:                                               ; preds = %58
  %60 = load i32, i32* %4, align 4
  %61 = add nsw i32 %60, 1
  store i32 %61, i32* %4, align 4
  br label %20

62:                                               ; preds = %57, %20
  %63 = load i32, i32* %4, align 4
  %64 = call i32 (i8*, ...) @printf(i8* getelementptr inbounds ([3 x i8], [3 x i8]* @.str.1, i64 0, i64 0), i32 %63)
  ret i32 0
}

declare dso_local i32 @__isoc99_scanf(i8*, ...) #1

; Function Attrs: nounwind readonly
declare dso_local i64 @strlen(i8*) #2

declare dso_local i32 @printf(i8*, ...) #1


!llvm.module.flags = !{!0}
!llvm.ident = !{!1}

!0 = !{i32 1, !"wchar_size", i32 4}
!1 = !{!"clang version 10.0.0-4ubuntu1 "}
